target datalayout = "e-m:e-p270:32:32-p271:32:32-p272:64:64-i64:64-i128:128-f80:128-n8:16:32:64-S128"
target triple = "x86_64-pc-linux-gnu"

%struct.Aig_Man_t_ = type { ptr, ptr, ptr, ptr, ptr, ptr, ptr, %struct.Aig_Obj_t_, i32, i32, i32, i32, i32, i32, [7 x i32], i32, ptr, i32, ptr, i32, ptr, i32, i32, i32, ptr, i32, i32, i32, i32, i32, ptr, ptr, i32, ptr, ptr, i32, ptr, ptr, i32, i32, i32, ptr, ptr, ptr, ptr, ptr, ptr, ptr, ptr, ptr, ptr, ptr, ptr, ptr, ptr, i32, ptr, ptr, ptr, ptr, i32, i64, i64, i64, ptr, ptr }
%struct.Aig_Obj_t_ = type { %union.anon, ptr, ptr, i64, i32, i32, %union.anon.0 }
%union.anon = type { ptr }
%union.anon.0 = type { ptr }
%struct.Vec_Ptr_t_ = type { i32, i32, ptr }
%struct.DdManager = type { %struct.DdNode, ptr, ptr, ptr, ptr, ptr, ptr, ptr, i32, i32, double, double, double, i32, i32, i32, i32, i32, i32, ptr, ptr, %struct.DdSubtable, i32, i32, i32, i32, i32, i32, i32, double, i32, i32, i32, ptr, i64, double, i32, ptr, ptr, ptr, ptr, ptr, ptr, ptr, i32, ptr, ptr, ptr, ptr, ptr, ptr, i32, i32, i32, double, i32, i32, i32, i32, double, double, i32, i32, i32, i32, i32, i32, i32, i32, i32, ptr, ptr, i32, i32, i32, i32, i32, i32, ptr, ptr, ptr, ptr, ptr, ptr, ptr, ptr, i32, i64, i64, i64, i32, i64, i64, double, double, double, double, double, double, i32, ptr, ptr, i64 }
%struct.DdNode = type { i32, i32, ptr, %union.anon.1, i64 }
%union.anon.1 = type { %struct.DdChildren }
%struct.DdChildren = type { ptr, ptr }
%struct.DdSubtable = type { ptr, i32, i32, i32, i32, i32, i32, i32, i32, i32, i32, i32 }

; Function Attrs: inlinehint nounwind uwtable
define internal i32 @Aig_ObjId(ptr noundef %0) #3 {
  %2 = alloca ptr, align 8
  store ptr %0, ptr %2, align 8, !tbaa !28
  %3 = load ptr, ptr %2, align 8, !tbaa !28
  %4 = getelementptr inbounds nuw %struct.Aig_Obj_t_, ptr %3, i32 0, i32 5
  %5 = load i32, ptr %4, align 4, !tbaa !37
  ret i32 %5
}

; Function Attrs: inlinehint nounwind uwtable
define internal i32 @Aig_ManRegNum(ptr noundef %0) #3 {
  %2 = alloca ptr, align 8
  store ptr %0, ptr %2, align 8, !tbaa !10
  %3 = load ptr, ptr %2, align 8, !tbaa !10
  %4 = getelementptr inbounds nuw %struct.Aig_Man_t_, ptr %3, i32 0, i32 8
  %5 = load i32, ptr %4, align 8, !tbaa !31
  ret i32 %5
}

; Function Attrs: inlinehint nounwind uwtable
define internal ptr @Vec_PtrEntry(ptr noundef %0, i32 noundef %1) #3 {
  %3 = alloca ptr, align 8
  %4 = alloca i32, align 4
  store ptr %0, ptr %3, align 8, !tbaa !32
  store i32 %1, ptr %4, align 4, !tbaa !12
  %5 = load ptr, ptr %3, align 8, !tbaa !32
  %6 = getelementptr inbounds nuw %struct.Vec_Ptr_t_, ptr %5, i32 0, i32 2
  %7 = load ptr, ptr %6, align 8, !tbaa !33
  %8 = load i32, ptr %4, align 4, !tbaa !12
  %9 = sext i32 %8 to i64
  %10 = getelementptr inbounds ptr, ptr %7, i64 %9
  %11 = load ptr, ptr %10, align 8, !tbaa !35
  ret ptr %11
}

; Function Attrs: inlinehint nounwind uwtable
define internal i32 @Saig_ManPiNum(ptr noundef %0) #3 {
  %2 = alloca ptr, align 8
  store ptr %0, ptr %2, align 8, !tbaa !10
  %3 = load ptr, ptr %2, align 8, !tbaa !10
  %4 = getelementptr inbounds nuw %struct.Aig_Man_t_, ptr %3, i32 0, i32 9
  %5 = load i32, ptr %4, align 4, !tbaa !36
  ret i32 %5
}

; Function Attrs: inlinehint nounwind uwtable
define internal i32 @Saig_ManRegNum(ptr noundef %0) #3 {
  %2 = alloca ptr, align 8
  store ptr %0, ptr %2, align 8, !tbaa !10
  %3 = load ptr, ptr %2, align 8, !tbaa !10
  %4 = getelementptr inbounds nuw %struct.Aig_Man_t_, ptr %3, i32 0, i32 8
  %5 = load i32, ptr %4, align 8, !tbaa !31
  ret i32 %5
}

; Function Attrs: nounwind uwtable
define ptr @Llb_NonlinComputeInitState(ptr noundef %0, ptr noundef %1) #0 {
  %3 = alloca ptr, align 8
  %4 = alloca ptr, align 8
  %5 = alloca ptr, align 8
  %6 = alloca ptr, align 8
  %7 = alloca ptr, align 8
  %8 = alloca ptr, align 8
  %9 = alloca i32, align 4
  %10 = alloca i32, align 4
  %11 = alloca i64, align 8
  store ptr %0, ptr %3, align 8, !tbaa !10
  store ptr %1, ptr %4, align 8, !tbaa !3
  call void @llvm.lifetime.start.p0(i64 8, ptr %5) #12
  call void @llvm.lifetime.start.p0(i64 8, ptr %6) #12
  call void @llvm.lifetime.start.p0(i64 8, ptr %7) #12
  call void @llvm.lifetime.start.p0(i64 8, ptr %8) #12
  call void @llvm.lifetime.start.p0(i64 4, ptr %9) #12
  call void @llvm.lifetime.start.p0(i64 4, ptr %10) #12
  call void @llvm.lifetime.start.p0(i64 8, ptr %11) #12
  %12 = load ptr, ptr %4, align 8, !tbaa !3
  %13 = getelementptr inbounds nuw %struct.DdManager, ptr %12, i32 0, i32 102
  %14 = load i64, ptr %13, align 8, !tbaa !56
  store i64 %14, ptr %11, align 8, !tbaa !14
  %15 = load ptr, ptr %4, align 8, !tbaa !3
  %16 = getelementptr inbounds nuw %struct.DdManager, ptr %15, i32 0, i32 102
  store i64 0, ptr %16, align 8, !tbaa !56
  %17 = load ptr, ptr %4, align 8, !tbaa !3
  %18 = call ptr @Cudd_ReadOne(ptr noundef %17)
  store ptr %18, ptr %6, align 8, !tbaa !8
  %19 = load ptr, ptr %6, align 8, !tbaa !8
  call void @Cudd_Ref(ptr noundef %19)
  store i32 0, ptr %9, align 4, !tbaa !12
  br label %20

20:                                               ; preds = %62, %2
  %21 = load i32, ptr %9, align 4, !tbaa !12
  %22 = load ptr, ptr %3, align 8, !tbaa !10
  %23 = call i32 @Saig_ManRegNum(ptr noundef %22)
  %24 = icmp slt i32 %21, %23
  br i1 %24, label %25, label %34

25:                                               ; preds = %20
  %26 = load ptr, ptr %3, align 8, !tbaa !10
  %27 = getelementptr inbounds nuw %struct.Aig_Man_t_, ptr %26, i32 0, i32 2
  %28 = load ptr, ptr %27, align 8, !tbaa !16
  %29 = load i32, ptr %9, align 4, !tbaa !12
  %30 = load ptr, ptr %3, align 8, !tbaa !10
  %31 = call i32 @Saig_ManPiNum(ptr noundef %30)
  %32 = add nsw i32 %29, %31
  %33 = call ptr @Vec_PtrEntry(ptr noundef %28, i32 noundef %32)
  store ptr %33, ptr %5, align 8, !tbaa !28
  br label %34

34:                                               ; preds = %25, %20
  %35 = phi i1 [ false, %20 ], [ true, %25 ]
  br i1 %35, label %36, label %65

36:                                               ; preds = %34
  %37 = load ptr, ptr %4, align 8, !tbaa !3
  %38 = call i32 @Cudd_ReadSize(ptr noundef %37)
  %39 = load ptr, ptr %3, align 8, !tbaa !10
  %40 = call i32 @Aig_ManRegNum(ptr noundef %39)
  %41 = icmp eq i32 %38, %40
  br i1 %41, label %42, label %44

42:                                               ; preds = %36
  %43 = load i32, ptr %9, align 4, !tbaa !12
  br label %47

44:                                               ; preds = %36
  %45 = load ptr, ptr %5, align 8, !tbaa !28
  %46 = call i32 @Aig_ObjId(ptr noundef %45)
  br label %47

47:                                               ; preds = %44, %42
  %48 = phi i32 [ %43, %42 ], [ %46, %44 ]
  store i32 %48, ptr %10, align 4, !tbaa !12
  %49 = load ptr, ptr %4, align 8, !tbaa !3
  %50 = load i32, ptr %10, align 4, !tbaa !12
  %51 = call ptr @Cudd_bddIthVar(ptr noundef %49, i32 noundef %50)
  store ptr %51, ptr %7, align 8, !tbaa !8
  %52 = load ptr, ptr %4, align 8, !tbaa !3
  %53 = load ptr, ptr %6, align 8, !tbaa !8
  store ptr %53, ptr %8, align 8, !tbaa !8
  %54 = load ptr, ptr %7, align 8, !tbaa !8
  %55 = ptrtoint ptr %54 to i64
  %56 = xor i64 %55, 1
  %57 = inttoptr i64 %56 to ptr
  %58 = call ptr @Cudd_bddAnd(ptr noundef %52, ptr noundef %53, ptr noundef %57)
  store ptr %58, ptr %6, align 8, !tbaa !8
  %59 = load ptr, ptr %6, align 8, !tbaa !8
  call void @Cudd_Ref(ptr noundef %59)
  %60 = load ptr, ptr %4, align 8, !tbaa !3
  %61 = load ptr, ptr %8, align 8, !tbaa !8
  call void @Cudd_RecursiveDeref(ptr noundef %60, ptr noundef %61)
  br label %62

62:                                               ; preds = %47
  %63 = load i32, ptr %9, align 4, !tbaa !12
  %64 = add nsw i32 %63, 1
  store i32 %64, ptr %9, align 4, !tbaa !12
  br label %20, !llvm.loop !69

65:                                               ; preds = %34
  %66 = load ptr, ptr %6, align 8, !tbaa !8
  call void @Cudd_Deref(ptr noundef %66)
  %67 = load i64, ptr %11, align 8, !tbaa !14
  %68 = load ptr, ptr %4, align 8, !tbaa !3
  %69 = getelementptr inbounds nuw %struct.DdManager, ptr %68, i32 0, i32 102
  store i64 %67, ptr %69, align 8, !tbaa !56
  %70 = load ptr, ptr %6, align 8, !tbaa !8
  call void @llvm.lifetime.end.p0(i64 8, ptr %11) #12
  call void @llvm.lifetime.end.p0(i64 4, ptr %10) #12
  call void @llvm.lifetime.end.p0(i64 4, ptr %9) #12
  call void @llvm.lifetime.end.p0(i64 8, ptr %8) #12
  call void @llvm.lifetime.end.p0(i64 8, ptr %7) #12
  call void @llvm.lifetime.end.p0(i64 8, ptr %6) #12
  call void @llvm.lifetime.end.p0(i64 8, ptr %5) #12
  ret ptr %70
}