; Function Attrs: nounwind uwtable
define noundef ptr @Llb_NonlinComputeInitState(ptr noundef readonly captures(none) %0, ptr noundef %1) local_unnamed_addr #0 {
  %3 = getelementptr inbounds nuw i8, ptr %1, i64 752
  %4 = load i64, ptr %3, align 8, !tbaa !51
  store i64 0, ptr %3, align 8, !tbaa !51
  %5 = tail call ptr @Cudd_ReadOne(ptr noundef %1) #19
  tail call void @Cudd_Ref(ptr noundef %5) #19
  %6 = getelementptr i8, ptr %0, i64 104
  %.val30 = load i32, ptr %6, align 8, !tbaa !9
  %7 = icmp sgt i32 %.val30, 0
  br i1 %7, label %.lr.ph, label %.critedge

.lr.ph:                                           ; preds = %2
  %8 = getelementptr inbounds nuw i8, ptr %0, i64 16
  %9 = getelementptr i8, ptr %0, i64 108
  br label %10

10:                                               ; preds = %.lr.ph, %21
  %.032 = phi ptr [ %5, %.lr.ph ], [ %27, %21 ]
  %.02531 = phi i32 [ 0, %.lr.ph ], [ %28, %21 ]
  %11 = load ptr, ptr %8, align 8, !tbaa !24
  %.val26 = load i32, ptr %9, align 4, !tbaa !25
  %12 = add nsw i32 %.val26, %.02531
  %13 = getelementptr i8, ptr %11, i64 8
  %.val27 = load ptr, ptr %13, align 8, !tbaa !26
  %14 = sext i32 %12 to i64
  %15 = getelementptr inbounds ptr, ptr %.val27, i64 %14
  %16 = load ptr, ptr %15, align 8, !tbaa !28
  %17 = tail call i32 @Cudd_ReadSize(ptr noundef %1) #19
  %.val29 = load i32, ptr %6, align 8, !tbaa !9
  %18 = icmp eq i32 %17, %.val29
  br i1 %18, label %21, label %19

19:                                               ; preds = %10
  %20 = getelementptr i8, ptr %16, i64 36
  %.val28 = load i32, ptr %20, align 4, !tbaa !29
  br label %21

21:                                               ; preds = %10, %19
  %22 = phi i32 [ %.val28, %19 ], [ %.02531, %10 ]
  %23 = tail call ptr @Cudd_bddIthVar(ptr noundef %1, i32 noundef %22) #19
  %24 = ptrtoint ptr %23 to i64
  %25 = xor i64 %24, 1
  %26 = inttoptr i64 %25 to ptr
  %27 = tail call ptr @Cudd_bddAnd(ptr noundef %1, ptr noundef %.032, ptr noundef %26) #19
  tail call void @Cudd_Ref(ptr noundef %27) #19
  tail call void @Cudd_RecursiveDeref(ptr noundef %1, ptr noundef %.032) #19
  %28 = add nuw nsw i32 %.02531, 1
  %.val = load i32, ptr %6, align 8, !tbaa !9
  %29 = icmp slt i32 %28, %.val
  br i1 %29, label %10, label %.critedge, !llvm.loop !65

.critedge:                                        ; preds = %21, %2
  %.0.lcssa = phi ptr [ %5, %2 ], [ %27, %21 ]
  tail call void @Cudd_Deref(ptr noundef %.0.lcssa) #19
  store i64 %4, ptr %3, align 8, !tbaa !51
  ret ptr %.0.lcssa
}